target datalayout = "e-m:e-p270:32:32-p271:32:32-p272:64:64-i64:64-i128:128-f80:128-n8:16:32:64-S128"
target triple = "x86_64-pc-linux-gnu"

; Function Attrs: mustprogress uwtable
define internal void @"_ZNSt14_Function_base13_Base_managerIZN3igl37qslim_optimal_collapse_edge_callbacksERN5Eigen6MatrixIiLin1ELin1ELi0ELin1ELin1EEERSt6vectorISt5tupleIJNS3_IdLin1ELin1ELi0ELin1ELin1EEENS3_IdLi1ELin1ELi1ELi1ELin1EEEdEESaISA_EERiSE_RSt8functionIFviRKS8_RKS4_SJ_RKNS3_IiLin1ELi1ELi0ELin1ELi1EEESJ_SJ_RdRS9_EERSF_IFbSH_SJ_SJ_SM_SJ_SJ_RKSt14priority_queueIS7_IJdiiEES6_IST_SaIST_EESt7greaterIST_EESM_SH_iEERSF_IFvSH_SJ_SJ_SM_SJ_SJ_S10_SM_SH_iiiiibEEE3$_2E9_M_createIRKS17_EEvRSt9_Any_dataOT_St17integral_constantIbLb0EE"(ptr noundef nonnull align 8 dereferenceable(16) %0, ptr noundef nonnull align 8 dereferenceable(24) %1) #3 align 2 {
  %3 = alloca ptr, align 8
  %4 = alloca ptr, align 8
  store ptr %0, ptr %3, align 8, !tbaa !47
  store ptr %1, ptr %4, align 8, !tbaa !27
  %5 = call noalias noundef nonnull ptr @_Znwm(i64 noundef 24) #28
  %6 = load ptr, ptr %4, align 8, !tbaa !27
  call void @llvm.memcpy.p0.p0.i64(ptr align 16 %5, ptr align 8 %6, i64 24, i1 false), !tbaa.struct !2002
  %7 = load ptr, ptr %3, align 8, !tbaa !47
  %8 = call noundef nonnull align 8 dereferenceable(8) ptr @"_ZNSt9_Any_data9_M_accessIPZN3igl37qslim_optimal_collapse_edge_callbacksERN5Eigen6MatrixIiLin1ELin1ELi0ELin1ELin1EEERSt6vectorISt5tupleIJNS3_IdLin1ELin1ELi0ELin1ELin1EEENS3_IdLi1ELin1ELi1ELi1ELin1EEEdEESaISA_EERiSE_RSt8functionIFviRKS8_RKS4_SJ_RKNS3_IiLin1ELi1ELi0ELin1ELi1EEESJ_SJ_RdRS9_EERSF_IFbSH_SJ_SJ_SM_SJ_SJ_RKSt14priority_queueIS7_IJdiiEES6_IST_SaIST_EESt7greaterIST_EESM_SH_iEERSF_IFvSH_SJ_SJ_SM_SJ_SJ_S10_SM_SH_iiiiibEEE3$_2EERT_v"(ptr noundef nonnull align 8 dereferenceable(16) %7) #20
  store ptr %5, ptr %8, align 8, !tbaa !27
  ret void
}

; Function Attrs: mustprogress nounwind uwtable
define linkonce_odr dso_local noundef ptr @_ZNKSt9_Any_data9_M_accessEv(ptr noundef nonnull align 8 dereferenceable(16) %0) #1 comdat align 2 {
  %2 = alloca ptr, align 8
  store ptr %0, ptr %2, align 8, !tbaa !47
  %3 = load ptr, ptr %2, align 8
  %4 = getelementptr inbounds [16 x i8], ptr %3, i64 0, i64 0
  ret ptr %4
}

; Function Attrs: mustprogress nounwind uwtable
define internal void @"_ZNSt14_Function_base13_Base_managerIZN3igl37qslim_optimal_collapse_edge_callbacksERN5Eigen6MatrixIiLin1ELin1ELi0ELin1ELin1EEERSt6vectorISt5tupleIJNS3_IdLin1ELin1ELi0ELin1ELin1EEENS3_IdLi1ELin1ELi1ELi1ELin1EEEdEESaISA_EERiSE_RSt8functionIFviRKS8_RKS4_SJ_RKNS3_IiLin1ELi1ELi0ELin1ELi1EEESJ_SJ_RdRS9_EERSF_IFbSH_SJ_SJ_SM_SJ_SJ_RKSt14priority_queueIS7_IJdiiEES6_IST_SaIST_EESt7greaterIST_EESM_SH_iEERSF_IFvSH_SJ_SJ_SM_SJ_SJ_S10_SM_SH_iiiiibEEE3$_2E10_M_destroyERSt9_Any_dataSt17integral_constantIbLb0EE"(ptr noundef nonnull align 8 dereferenceable(16) %0) #1 align 2 {
  %2 = alloca ptr, align 8
  store ptr %0, ptr %2, align 8, !tbaa !47
  %3 = load ptr, ptr %2, align 8, !tbaa !47
  %4 = call noundef nonnull align 8 dereferenceable(8) ptr @"_ZNSt9_Any_data9_M_accessIPZN3igl37qslim_optimal_collapse_edge_callbacksERN5Eigen6MatrixIiLin1ELin1ELi0ELin1ELin1EEERSt6vectorISt5tupleIJNS3_IdLin1ELin1ELi0ELin1ELin1EEENS3_IdLi1ELin1ELi1ELi1ELin1EEEdEESaISA_EERiSE_RSt8functionIFviRKS8_RKS4_SJ_RKNS3_IiLin1ELi1ELi0ELin1ELi1EEESJ_SJ_RdRS9_EERSF_IFbSH_SJ_SJ_SM_SJ_SJ_RKSt14priority_queueIS7_IJdiiEES6_IST_SaIST_EESt7greaterIST_EESM_SH_iEERSF_IFvSH_SJ_SJ_SM_SJ_SJ_S10_SM_SH_iiiiibEEE3$_2EERT_v"(ptr noundef nonnull align 8 dereferenceable(16) %3) #20
  %5 = load ptr, ptr %4, align 8, !tbaa !27
  %6 = icmp eq ptr %5, null
  br i1 %6, label %8, label %7

7:                                                ; preds = %1
  call void @_ZdlPvm(ptr noundef %5, i64 noundef 24) #29
  br label %8

8:                                                ; preds = %7, %1
  ret void
}

; Function Attrs: mustprogress uwtable
define internal void @"_ZNSt14_Function_base13_Base_managerIZN3igl37qslim_optimal_collapse_edge_callbacksERN5Eigen6MatrixIiLin1ELin1ELi0ELin1ELin1EEERSt6vectorISt5tupleIJNS3_IdLin1ELin1ELi0ELin1ELin1EEENS3_IdLi1ELin1ELi1ELi1ELin1EEEdEESaISA_EERiSE_RSt8functionIFviRKS8_RKS4_SJ_RKNS3_IiLin1ELi1ELi0ELin1ELi1EEESJ_SJ_RdRS9_EERSF_IFbSH_SJ_SJ_SM_SJ_SJ_RKSt14priority_queueIS7_IJdiiEES6_IST_SaIST_EESt7greaterIST_EESM_SH_iEERSF_IFvSH_SJ_SJ_SM_SJ_SJ_S10_SM_SH_iiiiibEEE3$_2E15_M_init_functorIRKS17_EEvRSt9_Any_dataOT_"(ptr noundef nonnull align 8 dereferenceable(16) %0, ptr noundef nonnull align 8 dereferenceable(24) %1) #3 align 2 {
  %3 = alloca ptr, align 8
  %4 = alloca ptr, align 8
  store ptr %0, ptr %3, align 8, !tbaa !47
  store ptr %1, ptr %4, align 8, !tbaa !27
  %5 = load ptr, ptr %3, align 8, !tbaa !47
  %6 = load ptr, ptr %4, align 8, !tbaa !27
  call void @"_ZNSt14_Function_base13_Base_managerIZN3igl37qslim_optimal_collapse_edge_callbacksERN5Eigen6MatrixIiLin1ELin1ELi0ELin1ELin1EEERSt6vectorISt5tupleIJNS3_IdLin1ELin1ELi0ELin1ELin1EEENS3_IdLi1ELin1ELi1ELi1ELin1EEEdEESaISA_EERiSE_RSt8functionIFviRKS8_RKS4_SJ_RKNS3_IiLin1ELi1ELi0ELin1ELi1EEESJ_SJ_RdRS9_EERSF_IFbSH_SJ_SJ_SM_SJ_SJ_RKSt14priority_queueIS7_IJdiiEES6_IST_SaIST_EESt7greaterIST_EESM_SH_iEERSF_IFvSH_SJ_SJ_SM_SJ_SJ_S10_SM_SH_iiiiibEEE3$_2E9_M_createIRKS17_EEvRSt9_Any_dataOT_St17integral_constantIbLb0EE"(ptr noundef nonnull align 8 dereferenceable(16) %5, ptr noundef nonnull align 8 dereferenceable(24) %6)
  ret void
}

; Function Attrs: mustprogress nounwind uwtable
define internal noundef nonnull align 8 dereferenceable(8) ptr @"_ZNKSt9_Any_data9_M_accessIPZN3igl37qslim_optimal_collapse_edge_callbacksERN5Eigen6MatrixIiLin1ELin1ELi0ELin1ELin1EEERSt6vectorISt5tupleIJNS3_IdLin1ELin1ELi0ELin1ELin1EEENS3_IdLi1ELin1ELi1ELi1ELin1EEEdEESaISA_EERiSE_RSt8functionIFviRKS8_RKS4_SJ_RKNS3_IiLin1ELi1ELi0ELin1ELi1EEESJ_SJ_RdRS9_EERSF_IFbSH_SJ_SJ_SM_SJ_SJ_RKSt14priority_queueIS7_IJdiiEES6_IST_SaIST_EESt7greaterIST_EESM_SH_iEERSF_IFvSH_SJ_SJ_SM_SJ_SJ_S10_SM_SH_iiiiibEEE3$_2EERKT_v"(ptr noundef nonnull align 8 dereferenceable(16) %0) #1 align 2 {
  %2 = alloca ptr, align 8
  store ptr %0, ptr %2, align 8, !tbaa !47
  %3 = load ptr, ptr %2, align 8
  %4 = call noundef ptr @_ZNKSt9_Any_data9_M_accessEv(ptr noundef nonnull align 8 dereferenceable(16) %3) #20
  ret ptr %4
}

; Function Attrs: mustprogress nounwind uwtable
define linkonce_odr dso_local noundef ptr @_ZNSt9_Any_data9_M_accessEv(ptr noundef nonnull align 8 dereferenceable(16) %0) #1 comdat align 2 {
  %2 = alloca ptr, align 8
  store ptr %0, ptr %2, align 8, !tbaa !47
  %3 = load ptr, ptr %2, align 8
  %4 = getelementptr inbounds [16 x i8], ptr %3, i64 0, i64 0
  ret ptr %4
}

; Function Attrs: mustprogress uwtable
define internal noundef zeroext i1 @"_ZNSt14_Function_base13_Base_managerIZN3igl37qslim_optimal_collapse_edge_callbacksERN5Eigen6MatrixIiLin1ELin1ELi0ELin1ELin1EEERSt6vectorISt5tupleIJNS3_IdLin1ELin1ELi0ELin1ELin1EEENS3_IdLi1ELin1ELi1ELi1ELin1EEEdEESaISA_EERiSE_RSt8functionIFviRKS8_RKS4_SJ_RKNS3_IiLin1ELi1ELi0ELin1ELi1EEESJ_SJ_RdRS9_EERSF_IFbSH_SJ_SJ_SM_SJ_SJ_RKSt14priority_queueIS7_IJdiiEES6_IST_SaIST_EESt7greaterIST_EESM_SH_iEERSF_IFvSH_SJ_SJ_SM_SJ_SJ_S10_SM_SH_iiiiibEEE3$_2E10_M_managerERSt9_Any_dataRKS19_St18_Manager_operation"(ptr noundef nonnull align 8 dereferenceable(16) %0, ptr noundef nonnull align 8 dereferenceable(16) %1, i32 noundef %2) #3 align 2 {
  %4 = alloca ptr, align 8
  %5 = alloca ptr, align 8
  %6 = alloca i32, align 4
  store ptr %0, ptr %4, align 8, !tbaa !47
  store ptr %1, ptr %5, align 8, !tbaa !47
  store i32 %2, ptr %6, align 4, !tbaa !57
  %7 = load i32, ptr %6, align 4, !tbaa !57
  switch i32 %7, label %22 [
    i32 0, label %8
    i32 1, label %11
    i32 2, label %16
    i32 3, label %20
  ]

8:                                                ; preds = %3
  %9 = load ptr, ptr %4, align 8, !tbaa !47
  %10 = call noundef nonnull align 8 dereferenceable(8) ptr @_ZNSt9_Any_data9_M_accessIPKSt9type_infoEERT_v(ptr noundef nonnull align 8 dereferenceable(16) %9) #20
  store ptr @"_ZTIZN3igl37qslim_optimal_collapse_edge_callbacksERN5Eigen6MatrixIiLin1ELin1ELi0ELin1ELin1EEERSt6vectorISt5tupleIJNS1_IdLin1ELin1ELi0ELin1ELin1EEENS1_IdLi1ELin1ELi1ELi1ELin1EEEdEESaIS8_EERiSC_RSt8functionIFviRKS6_RKS2_SH_RKNS1_IiLin1ELi1ELi0ELin1ELi1EEESH_SH_RdRS7_EERSD_IFbSF_SH_SH_SK_SH_SH_RKSt14priority_queueIS5_IJdiiEES4_ISR_SaISR_EESt7greaterISR_EESK_SF_iEERSD_IFvSF_SH_SH_SK_SH_SH_SY_SK_SF_iiiiibEEE3$_2", ptr %10, align 8, !tbaa !59
  br label %22

11:                                               ; preds = %3
  %12 = load ptr, ptr %5, align 8, !tbaa !47
  %13 = call noundef ptr @"_ZNSt14_Function_base13_Base_managerIZN3igl37qslim_optimal_collapse_edge_callbacksERN5Eigen6MatrixIiLin1ELin1ELi0ELin1ELin1EEERSt6vectorISt5tupleIJNS3_IdLin1ELin1ELi0ELin1ELin1EEENS3_IdLi1ELin1ELi1ELi1ELin1EEEdEESaISA_EERiSE_RSt8functionIFviRKS8_RKS4_SJ_RKNS3_IiLin1ELi1ELi0ELin1ELi1EEESJ_SJ_RdRS9_EERSF_IFbSH_SJ_SJ_SM_SJ_SJ_RKSt14priority_queueIS7_IJdiiEES6_IST_SaIST_EESt7greaterIST_EESM_SH_iEERSF_IFvSH_SJ_SJ_SM_SJ_SJ_S10_SM_SH_iiiiibEEE3$_2E14_M_get_pointerERKSt9_Any_data"(ptr noundef nonnull align 8 dereferenceable(16) %12) #20
  %14 = load ptr, ptr %4, align 8, !tbaa !47
  %15 = call noundef nonnull align 8 dereferenceable(8) ptr @"_ZNSt9_Any_data9_M_accessIPZN3igl37qslim_optimal_collapse_edge_callbacksERN5Eigen6MatrixIiLin1ELin1ELi0ELin1ELin1EEERSt6vectorISt5tupleIJNS3_IdLin1ELin1ELi0ELin1ELin1EEENS3_IdLi1ELin1ELi1ELi1ELin1EEEdEESaISA_EERiSE_RSt8functionIFviRKS8_RKS4_SJ_RKNS3_IiLin1ELi1ELi0ELin1ELi1EEESJ_SJ_RdRS9_EERSF_IFbSH_SJ_SJ_SM_SJ_SJ_RKSt14priority_queueIS7_IJdiiEES6_IST_SaIST_EESt7greaterIST_EESM_SH_iEERSF_IFvSH_SJ_SJ_SM_SJ_SJ_S10_SM_SH_iiiiibEEE3$_2EERT_v"(ptr noundef nonnull align 8 dereferenceable(16) %14) #20
  store ptr %13, ptr %15, align 8, !tbaa !27
  br label %22

16:                                               ; preds = %3
  %17 = load ptr, ptr %4, align 8, !tbaa !47
  %18 = load ptr, ptr %5, align 8, !tbaa !47
  %19 = call noundef ptr @"_ZNSt14_Function_base13_Base_managerIZN3igl37qslim_optimal_collapse_edge_callbacksERN5Eigen6MatrixIiLin1ELin1ELi0ELin1ELin1EEERSt6vectorISt5tupleIJNS3_IdLin1ELin1ELi0ELin1ELin1EEENS3_IdLi1ELin1ELi1ELi1ELin1EEEdEESaISA_EERiSE_RSt8functionIFviRKS8_RKS4_SJ_RKNS3_IiLin1ELi1ELi0ELin1ELi1EEESJ_SJ_RdRS9_EERSF_IFbSH_SJ_SJ_SM_SJ_SJ_RKSt14priority_queueIS7_IJdiiEES6_IST_SaIST_EESt7greaterIST_EESM_SH_iEERSF_IFvSH_SJ_SJ_SM_SJ_SJ_S10_SM_SH_iiiiibEEE3$_2E14_M_get_pointerERKSt9_Any_data"(ptr noundef nonnull align 8 dereferenceable(16) %18) #20
  call void @"_ZNSt14_Function_base13_Base_managerIZN3igl37qslim_optimal_collapse_edge_callbacksERN5Eigen6MatrixIiLin1ELin1ELi0ELin1ELin1EEERSt6vectorISt5tupleIJNS3_IdLin1ELin1ELi0ELin1ELin1EEENS3_IdLi1ELin1ELi1ELi1ELin1EEEdEESaISA_EERiSE_RSt8functionIFviRKS8_RKS4_SJ_RKNS3_IiLin1ELi1ELi0ELin1ELi1EEESJ_SJ_RdRS9_EERSF_IFbSH_SJ_SJ_SM_SJ_SJ_RKSt14priority_queueIS7_IJdiiEES6_IST_SaIST_EESt7greaterIST_EESM_SH_iEERSF_IFvSH_SJ_SJ_SM_SJ_SJ_S10_SM_SH_iiiiibEEE3$_2E15_M_init_functorIRKS17_EEvRSt9_Any_dataOT_"(ptr noundef nonnull align 8 dereferenceable(16) %17, ptr noundef nonnull align 8 dereferenceable(24) %19)
  br label %22

20:                                               ; preds = %3
  %21 = load ptr, ptr %4, align 8, !tbaa !47
  call void @"_ZNSt14_Function_base13_Base_managerIZN3igl37qslim_optimal_collapse_edge_callbacksERN5Eigen6MatrixIiLin1ELin1ELi0ELin1ELin1EEERSt6vectorISt5tupleIJNS3_IdLin1ELin1ELi0ELin1ELin1EEENS3_IdLi1ELin1ELi1ELi1ELin1EEEdEESaISA_EERiSE_RSt8functionIFviRKS8_RKS4_SJ_RKNS3_IiLin1ELi1ELi0ELin1ELi1EEESJ_SJ_RdRS9_EERSF_IFbSH_SJ_SJ_SM_SJ_SJ_RKSt14priority_queueIS7_IJdiiEES6_IST_SaIST_EESt7greaterIST_EESM_SH_iEERSF_IFvSH_SJ_SJ_SM_SJ_SJ_S10_SM_SH_iiiiibEEE3$_2E10_M_destroyERSt9_Any_dataSt17integral_constantIbLb0EE"(ptr noundef nonnull align 8 dereferenceable(16) %21)
  br label %22

22:                                               ; preds = %3, %20, %16, %11, %8
  ret i1 false
}

; Function Attrs: mustprogress nounwind uwtable
define internal noundef nonnull align 8 dereferenceable(8) ptr @"_ZNSt9_Any_data9_M_accessIPZN3igl37qslim_optimal_collapse_edge_callbacksERN5Eigen6MatrixIiLin1ELin1ELi0ELin1ELin1EEERSt6vectorISt5tupleIJNS3_IdLin1ELin1ELi0ELin1ELin1EEENS3_IdLi1ELin1ELi1ELi1ELin1EEEdEESaISA_EERiSE_RSt8functionIFviRKS8_RKS4_SJ_RKNS3_IiLin1ELi1ELi0ELin1ELi1EEESJ_SJ_RdRS9_EERSF_IFbSH_SJ_SJ_SM_SJ_SJ_RKSt14priority_queueIS7_IJdiiEES6_IST_SaIST_EESt7greaterIST_EESM_SH_iEERSF_IFvSH_SJ_SJ_SM_SJ_SJ_S10_SM_SH_iiiiibEEE3$_2EERT_v"(ptr noundef nonnull align 8 dereferenceable(16) %0) #1 align 2 {
  %2 = alloca ptr, align 8
  store ptr %0, ptr %2, align 8, !tbaa !47
  %3 = load ptr, ptr %2, align 8
  %4 = call noundef ptr @_ZNSt9_Any_data9_M_accessEv(ptr noundef nonnull align 8 dereferenceable(16) %3) #20
  ret ptr %4
}

; Function Attrs: mustprogress nounwind uwtable
define internal noundef ptr @"_ZNSt14_Function_base13_Base_managerIZN3igl37qslim_optimal_collapse_edge_callbacksERN5Eigen6MatrixIiLin1ELin1ELi0ELin1ELin1EEERSt6vectorISt5tupleIJNS3_IdLin1ELin1ELi0ELin1ELin1EEENS3_IdLi1ELin1ELi1ELi1ELin1EEEdEESaISA_EERiSE_RSt8functionIFviRKS8_RKS4_SJ_RKNS3_IiLin1ELi1ELi0ELin1ELi1EEESJ_SJ_RdRS9_EERSF_IFbSH_SJ_SJ_SM_SJ_SJ_RKSt14priority_queueIS7_IJdiiEES6_IST_SaIST_EESt7greaterIST_EESM_SH_iEERSF_IFvSH_SJ_SJ_SM_SJ_SJ_S10_SM_SH_iiiiibEEE3$_2E14_M_get_pointerERKSt9_Any_data"(ptr noundef nonnull align 8 dereferenceable(16) %0) #1 align 2 {
  %2 = alloca ptr, align 8
  store ptr %0, ptr %2, align 8, !tbaa !47
  %3 = load ptr, ptr %2, align 8, !tbaa !47
  %4 = call noundef nonnull align 8 dereferenceable(8) ptr @"_ZNKSt9_Any_data9_M_accessIPZN3igl37qslim_optimal_collapse_edge_callbacksERN5Eigen6MatrixIiLin1ELin1ELi0ELin1ELin1EEERSt6vectorISt5tupleIJNS3_IdLin1ELin1ELi0ELin1ELin1EEENS3_IdLi1ELin1ELi1ELi1ELin1EEEdEESaISA_EERiSE_RSt8functionIFviRKS8_RKS4_SJ_RKNS3_IiLin1ELi1ELi0ELin1ELi1EEESJ_SJ_RdRS9_EERSF_IFbSH_SJ_SJ_SM_SJ_SJ_RKSt14priority_queueIS7_IJdiiEES6_IST_SaIST_EESt7greaterIST_EESM_SH_iEERSF_IFvSH_SJ_SJ_SM_SJ_SJ_S10_SM_SH_iiiiibEEE3$_2EERKT_v"(ptr noundef nonnull align 8 dereferenceable(16) %3) #20
  %5 = load ptr, ptr %4, align 8, !tbaa !27
  ret ptr %5
}

; Function Attrs: mustprogress nounwind uwtable
define linkonce_odr dso_local noundef nonnull align 8 dereferenceable(8) ptr @_ZNSt9_Any_data9_M_accessIPKSt9type_infoEERT_v(ptr noundef nonnull align 8 dereferenceable(16) %0) #1 comdat align 2 {
  %2 = alloca ptr, align 8
  store ptr %0, ptr %2, align 8, !tbaa !47
  %3 = load ptr, ptr %2, align 8
  %4 = call noundef ptr @_ZNSt9_Any_data9_M_accessEv(ptr noundef nonnull align 8 dereferenceable(16) %3) #20
  ret ptr %4
}

; Function Attrs: mustprogress uwtable
define internal noundef zeroext i1 @"_ZNSt17_Function_handlerIFvRKN5Eigen6MatrixIdLin1ELin1ELi0ELin1ELin1EEERKNS1_IiLin1ELin1ELi0ELin1ELin1EEES7_RKNS1_IiLin1ELi1ELi0ELin1ELi1EEES7_S7_RKSt14priority_queueISt5tupleIJdiiEESt6vectorISD_SaISD_EESt7greaterISD_EESA_S4_iiiiibEZN3igl37qslim_optimal_collapse_edge_callbacksERS5_RSE_ISC_IJS2_NS1_IdLi1ELin1ELi1ELi1ELin1EEEdEESaISQ_EERiSU_RSt8functionIFviS4_S7_S7_SA_S7_S7_RdRSP_EERSV_IFbS4_S7_S7_SA_S7_S7_SL_SA_S4_iEERSV_ISM_EE3$_2E10_M_managerERSt9_Any_dataRKS18_St18_Manager_operation"(ptr noundef nonnull align 8 dereferenceable(16) %0, ptr noundef nonnull align 8 dereferenceable(16) %1, i32 noundef %2) #3 align 2 {
  %4 = alloca ptr, align 8
  %5 = alloca ptr, align 8
  %6 = alloca i32, align 4
  store ptr %0, ptr %4, align 8, !tbaa !47
  store ptr %1, ptr %5, align 8, !tbaa !47
  store i32 %2, ptr %6, align 4, !tbaa !57
  %7 = load i32, ptr %6, align 4, !tbaa !57
  switch i32 %7, label %16 [
    i32 0, label %8
    i32 1, label %11
  ]

8:                                                ; preds = %3
  %9 = load ptr, ptr %4, align 8, !tbaa !47
  %10 = call noundef nonnull align 8 dereferenceable(8) ptr @_ZNSt9_Any_data9_M_accessIPKSt9type_infoEERT_v(ptr noundef nonnull align 8 dereferenceable(16) %9) #20
  store ptr @"_ZTIZN3igl37qslim_optimal_collapse_edge_callbacksERN5Eigen6MatrixIiLin1ELin1ELi0ELin1ELin1EEERSt6vectorISt5tupleIJNS1_IdLin1ELin1ELi0ELin1ELin1EEENS1_IdLi1ELin1ELi1ELi1ELin1EEEdEESaIS8_EERiSC_RSt8functionIFviRKS6_RKS2_SH_RKNS1_IiLin1ELi1ELi0ELin1ELi1EEESH_SH_RdRS7_EERSD_IFbSF_SH_SH_SK_SH_SH_RKSt14priority_queueIS5_IJdiiEES4_ISR_SaISR_EESt7greaterISR_EESK_SF_iEERSD_IFvSF_SH_SH_SK_SH_SH_SY_SK_SF_iiiiibEEE3$_2", ptr %10, align 8, !tbaa !59
  br label %21

11:                                               ; preds = %3
  %12 = load ptr, ptr %5, align 8, !tbaa !47
  %13 = call noundef ptr @"_ZNSt14_Function_base13_Base_managerIZN3igl37qslim_optimal_collapse_edge_callbacksERN5Eigen6MatrixIiLin1ELin1ELi0ELin1ELin1EEERSt6vectorISt5tupleIJNS3_IdLin1ELin1ELi0ELin1ELin1EEENS3_IdLi1ELin1ELi1ELi1ELin1EEEdEESaISA_EERiSE_RSt8functionIFviRKS8_RKS4_SJ_RKNS3_IiLin1ELi1ELi0ELin1ELi1EEESJ_SJ_RdRS9_EERSF_IFbSH_SJ_SJ_SM_SJ_SJ_RKSt14priority_queueIS7_IJdiiEES6_IST_SaIST_EESt7greaterIST_EESM_SH_iEERSF_IFvSH_SJ_SJ_SM_SJ_SJ_S10_SM_SH_iiiiibEEE3$_2E14_M_get_pointerERKSt9_Any_data"(ptr noundef nonnull align 8 dereferenceable(16) %12) #20
  %14 = load ptr, ptr %4, align 8, !tbaa !47
  %15 = call noundef nonnull align 8 dereferenceable(8) ptr @"_ZNSt9_Any_data9_M_accessIPZN3igl37qslim_optimal_collapse_edge_callbacksERN5Eigen6MatrixIiLin1ELin1ELi0ELin1ELin1EEERSt6vectorISt5tupleIJNS3_IdLin1ELin1ELi0ELin1ELin1EEENS3_IdLi1ELin1ELi1ELi1ELin1EEEdEESaISA_EERiSE_RSt8functionIFviRKS8_RKS4_SJ_RKNS3_IiLin1ELi1ELi0ELin1ELi1EEESJ_SJ_RdRS9_EERSF_IFbSH_SJ_SJ_SM_SJ_SJ_RKSt14priority_queueIS7_IJdiiEES6_IST_SaIST_EESt7greaterIST_EESM_SH_iEERSF_IFvSH_SJ_SJ_SM_SJ_SJ_S10_SM_SH_iiiiibEEE3$_2EERT_v"(ptr noundef nonnull align 8 dereferenceable(16) %14) #20
  store ptr %13, ptr %15, align 8, !tbaa !27
  br label %21

16:                                               ; preds = %3
  %17 = load ptr, ptr %4, align 8, !tbaa !47
  %18 = load ptr, ptr %5, align 8, !tbaa !47
  %19 = load i32, ptr %6, align 4, !tbaa !57
  %20 = call noundef zeroext i1 @"_ZNSt14_Function_base13_Base_managerIZN3igl37qslim_optimal_collapse_edge_callbacksERN5Eigen6MatrixIiLin1ELin1ELi0ELin1ELin1EEERSt6vectorISt5tupleIJNS3_IdLin1ELin1ELi0ELin1ELin1EEENS3_IdLi1ELin1ELi1ELi1ELin1EEEdEESaISA_EERiSE_RSt8functionIFviRKS8_RKS4_SJ_RKNS3_IiLin1ELi1ELi0ELin1ELi1EEESJ_SJ_RdRS9_EERSF_IFbSH_SJ_SJ_SM_SJ_SJ_RKSt14priority_queueIS7_IJdiiEES6_IST_SaIST_EESt7greaterIST_EESM_SH_iEERSF_IFvSH_SJ_SJ_SM_SJ_SJ_S10_SM_SH_iiiiibEEE3$_2E10_M_managerERSt9_Any_dataRKS19_St18_Manager_operation"(ptr noundef nonnull align 8 dereferenceable(16) %17, ptr noundef nonnull align 8 dereferenceable(16) %18, i32 noundef %19)
  br label %21

21:                                               ; preds = %16, %11, %8
  ret i1 false
}